#include <math.h>
#include <stdio.h>
#include <stdlib.h>
#include <string.h>


int main()
{
int n,i,j,k;
struct student
{
	int num;
	int chi;
	int math;
	int sum;
}score[100000],temp;
scanf("%d",&n);
for(i=0;i<n;i++)
{
	scanf("%d %d %d",&score[i].num,&score[i].chi,&score[i].math);
	score[i].sum=score[i].chi + score[i].math;
}
	for(i=0;i<4;i++)
	{
		k=i;
		for(j=i+1;j<n;j++)
			if(score[j].sum>score[k].sum) k=j;
		temp=score[k];score[k]=score[i];score[i]=temp;
	}
printf("%d %d",score[0].num,score[0].sum);printf("\n");
printf("%d %d",score[1].num,score[1].sum);printf("\n");
printf("%d %d",score[2].num,score[2].sum);
return 0;
}