target datalayout = "e-m:e-p270:32:32-p271:32:32-p272:64:64-i64:64-f80:128-n8:16:32:64-S128"
target triple = "x86_64-pc-linux-gnu"

%struct.student = type { i32, i32, i32, i32 }

@.str = private unnamed_addr constant [3 x i8] c"%d\00", align 1
@.str.1 = private unnamed_addr constant [9 x i8] c"%d %d %d\00", align 1
@.str.2 = private unnamed_addr constant [6 x i8] c"%d %d\00", align 1
@.str.3 = private unnamed_addr constant [2 x i8] c"\0A\00", align 1

; Function Attrs: noinline nounwind uwtable
define dso_local i32 @main() #0 {
  %1 = alloca i32, align 4
  %2 = alloca i32, align 4
  %3 = alloca i32, align 4
  %4 = alloca i32, align 4
  %5 = alloca i32, align 4
  %6 = alloca [100000 x %struct.student], align 16
  %7 = alloca %struct.student, align 4
  store i32 0, i32* %1, align 4
  %8 = call i32 (i8*, ...) @__isoc99_scanf(i8* getelementptr inbounds ([3 x i8], [3 x i8]* @.str, i64 0, i64 0), i32* %2)
  store i32 0, i32* %3, align 4
  br label %9

9:                                                ; preds = %42, %0
  %10 = load i32, i32* %3, align 4
  %11 = load i32, i32* %2, align 4
  %12 = icmp slt i32 %10, %11
  br i1 %12, label %13, label %45

13:                                               ; preds = %9
  %14 = load i32, i32* %3, align 4
  %15 = sext i32 %14 to i64
  %16 = getelementptr inbounds [100000 x %struct.student], [100000 x %struct.student]* %6, i64 0, i64 %15
  %17 = getelementptr inbounds %struct.student, %struct.student* %16, i32 0, i32 0
  %18 = load i32, i32* %3, align 4
  %19 = sext i32 %18 to i64
  %20 = getelementptr inbounds [100000 x %struct.student], [100000 x %struct.student]* %6, i64 0, i64 %19
  %21 = getelementptr inbounds %struct.student, %struct.student* %20, i32 0, i32 1
  %22 = load i32, i32* %3, align 4
  %23 = sext i32 %22 to i64
  %24 = getelementptr inbounds [100000 x %struct.student], [100000 x %struct.student]* %6, i64 0, i64 %23
  %25 = getelementptr inbounds %struct.student, %struct.student* %24, i32 0, i32 2
  %26 = call i32 (i8*, ...) @__isoc99_scanf(i8* getelementptr inbounds ([9 x i8], [9 x i8]* @.str.1, i64 0, i64 0), i32* %17, i32* %21, i32* %25)
  %27 = load i32, i32* %3, align 4
  %28 = sext i32 %27 to i64
  %29 = getelementptr inbounds [100000 x %struct.student], [100000 x %struct.student]* %6, i64 0, i64 %28
  %30 = getelementptr inbounds %struct.student, %struct.student* %29, i32 0, i32 1
  %31 = load i32, i32* %30, align 4
  %32 = load i32, i32* %3, align 4
  %33 = sext i32 %32 to i64
  %34 = getelementptr inbounds [100000 x %struct.student], [100000 x %struct.student]* %6, i64 0, i64 %33
  %35 = getelementptr inbounds %struct.student, %struct.student* %34, i32 0, i32 2
  %36 = load i32, i32* %35, align 8
  %37 = add nsw i32 %31, %36
  %38 = load i32, i32* %3, align 4
  %39 = sext i32 %38 to i64
  %40 = getelementptr inbounds [100000 x %struct.student], [100000 x %struct.student]* %6, i64 0, i64 %39
  %41 = getelementptr inbounds %struct.student, %struct.student* %40, i32 0, i32 3
  store i32 %37, i32* %41, align 4
  br label %42

42:                                               ; preds = %13
  %43 = load i32, i32* %3, align 4
  %44 = add nsw i32 %43, 1
  store i32 %44, i32* %3, align 4
  br label %9

45:                                               ; preds = %9
  store i32 0, i32* %3, align 4
  br label %46

46:                                               ; preds = %94, %45
  %47 = load i32, i32* %3, align 4
  %48 = icmp slt i32 %47, 4
  br i1 %48, label %49, label %97

49:                                               ; preds = %46
  %50 = load i32, i32* %3, align 4
  store i32 %50, i32* %5, align 4
  %51 = load i32, i32* %3, align 4
  %52 = add nsw i32 %51, 1
  store i32 %52, i32* %4, align 4
  br label %53

53:                                               ; preds = %72, %49
  %54 = load i32, i32* %4, align 4
  %55 = load i32, i32* %2, align 4
  %56 = icmp slt i32 %54, %55
  br i1 %56, label %57, label %75

57:                                               ; preds = %53
  %58 = load i32, i32* %4, align 4
  %59 = sext i32 %58 to i64
  %60 = getelementptr inbounds [100000 x %struct.student], [100000 x %struct.student]* %6, i64 0, i64 %59
  %61 = getelementptr inbounds %struct.student, %struct.student* %60, i32 0, i32 3
  %62 = load i32, i32* %61, align 4
  %63 = load i32, i32* %5, align 4
  %64 = sext i32 %63 to i64
  %65 = getelementptr inbounds [100000 x %struct.student], [100000 x %struct.student]* %6, i64 0, i64 %64
  %66 = getelementptr inbounds %struct.student, %struct.student* %65, i32 0, i32 3
  %67 = load i32, i32* %66, align 4
  %68 = icmp sgt i32 %62, %67
  br i1 %68, label %69, label %71

69:                                               ; preds = %57
  %70 = load i32, i32* %4, align 4
  store i32 %70, i32* %5, align 4
  br label %71

71:                                               ; preds = %69, %57
  br label %72

72:                                               ; preds = %71
  %73 = load i32, i32* %4, align 4
  %74 = add nsw i32 %73, 1
  store i32 %74, i32* %4, align 4
  br label %53

75:                                               ; preds = %53
  %76 = load i32, i32* %5, align 4
  %77 = sext i32 %76 to i64
  %78 = getelementptr inbounds [100000 x %struct.student], [100000 x %struct.student]* %6, i64 0, i64 %77
  %79 = bitcast %struct.student* %7 to i8*
  %80 = bitcast %struct.student* %78 to i8*
  call void @llvm.memcpy.p0i8.p0i8.i64(i8* align 4 %79, i8* align 16 %80, i64 16, i1 false)
  %81 = load i32, i32* %5, align 4
  %82 = sext i32 %81 to i64
  %83 = getelementptr inbounds [100000 x %struct.student], [100000 x %struct.student]* %6, i64 0, i64 %82
  %84 = load i32, i32* %3, align 4
  %85 = sext i32 %84 to i64
  %86 = getelementptr inbounds [100000 x %struct.student], [100000 x %struct.student]* %6, i64 0, i64 %85
  %87 = bitcast %struct.student* %83 to i8*
  %88 = bitcast %struct.student* %86 to i8*
  call void @llvm.memcpy.p0i8.p0i8.i64(i8* align 16 %87, i8* align 16 %88, i64 16, i1 false)
  %89 = load i32, i32* %3, align 4
  %90 = sext i32 %89 to i64
  %91 = getelementptr inbounds [100000 x %struct.student], [100000 x %struct.student]* %6, i64 0, i64 %90
  %92 = bitcast %struct.student* %91 to i8*
  %93 = bitcast %struct.student* %7 to i8*
  call void @llvm.memcpy.p0i8.p0i8.i64(i8* align 16 %92, i8* align 4 %93, i64 16, i1 false)
  br label %94

94:                                               ; preds = %75
  %95 = load i32, i32* %3, align 4
  %96 = add nsw i32 %95, 1
  store i32 %96, i32* %3, align 4
  br label %46

97:                                               ; preds = %46
  %98 = getelementptr inbounds [100000 x %struct.student], [100000 x %struct.student]* %6, i64 0, i64 0
  %99 = getelementptr inbounds %struct.student, %struct.student* %98, i32 0, i32 0
  %100 = load i32, i32* %99, align 16
  %101 = getelementptr inbounds [100000 x %struct.student], [100000 x %struct.student]* %6, i64 0, i64 0
  %102 = getelementptr inbounds %struct.student, %struct.student* %101, i32 0, i32 3
  %103 = load i32, i32* %102, align 4
  %104 = call i32 (i8*, ...) @printf(i8* getelementptr inbounds ([6 x i8], [6 x i8]* @.str.2, i64 0, i64 0), i32 %100, i32 %103)
  %105 = call i32 (i8*, ...) @printf(i8* getelementptr inbounds ([2 x i8], [2 x i8]* @.str.3, i64 0, i64 0))
  %106 = getelementptr inbounds [100000 x %struct.student], [100000 x %struct.student]* %6, i64 0, i64 1
  %107 = getelementptr inbounds %struct.student, %struct.student* %106, i32 0, i32 0
  %108 = load i32, i32* %107, align 16
  %109 = getelementptr inbounds [100000 x %struct.student], [100000 x %struct.student]* %6, i64 0, i64 1
  %110 = getelementptr inbounds %struct.student, %struct.student* %109, i32 0, i32 3
  %111 = load i32, i32* %110, align 4
  %112 = call i32 (i8*, ...) @printf(i8* getelementptr inbounds ([6 x i8], [6 x i8]* @.str.2, i64 0, i64 0), i32 %108, i32 %111)
  %113 = call i32 (i8*, ...) @printf(i8* getelementptr inbounds ([2 x i8], [2 x i8]* @.str.3, i64 0, i64 0))
  %114 = getelementptr inbounds [100000 x %struct.student], [100000 x %struct.student]* %6, i64 0, i64 2
  %115 = getelementptr inbounds %struct.student, %struct.student* %114, i32 0, i32 0
  %116 = load i32, i32* %115, align 16
  %117 = getelementptr inbounds [100000 x %struct.student], [100000 x %struct.student]* %6, i64 0, i64 2
  %118 = getelementptr inbounds %struct.student, %struct.student* %117, i32 0, i32 3
  %119 = load i32, i32* %118, align 4
  %120 = call i32 (i8*, ...) @printf(i8* getelementptr inbounds ([6 x i8], [6 x i8]* @.str.2, i64 0, i64 0), i32 %116, i32 %119)
  ret i32 0
}